target datalayout = "e-m:e-p270:32:32-p271:32:32-p272:64:64-i64:64-i128:128-f80:128-n8:16:32:64-S128"
target triple = "x86_64-pc-linux-gnu"

; Function Attrs: mustprogress uwtable
define i32 @zmq_timers_execute(ptr noundef %0) #1 {
  %2 = alloca i32, align 4
  %3 = alloca ptr, align 8
  store ptr %0, ptr %3, align 8, !tbaa !12
  %4 = load ptr, ptr %3, align 8, !tbaa !12
  %5 = icmp ne ptr %4, null
  br i1 %5, label %6, label %9

6:                                                ; preds = %1
  %7 = load ptr, ptr %3, align 8, !tbaa !12
  %8 = call noundef zeroext i1 @_ZNK3zmq8timers_t9check_tagEv(ptr noundef nonnull align 8 dereferenceable(120) %7)
  br i1 %8, label %11, label %9

9:                                                ; preds = %6, %1
  %10 = call ptr @__errno_location() #19
  store i32 14, ptr %10, align 4, !tbaa !8
  store i32 -1, ptr %2, align 4
  br label %14

11:                                               ; preds = %6
  %12 = load ptr, ptr %3, align 8, !tbaa !12
  %13 = call noundef i32 @_ZN3zmq8timers_t7executeEv(ptr noundef nonnull align 8 dereferenceable(120) %12)
  store i32 %13, ptr %2, align 4
  br label %14

14:                                               ; preds = %11, %9
  %15 = load i32, ptr %2, align 4
  ret i32 %15
}