; Function Attrs: mustprogress uwtable
define noundef i32 @zmq_timers_execute(ptr noundef %0) local_unnamed_addr #1 {
  %.not = icmp eq ptr %0, null
  br i1 %.not, label %4, label %2

2:                                                ; preds = %1
  %3 = tail call noundef zeroext i1 @_ZNK3zmq8timers_t9check_tagEv(ptr noundef nonnull align 8 dereferenceable(120) %0)
  br i1 %3, label %6, label %4

4:                                                ; preds = %2, %1
  %5 = tail call ptr @__errno_location() #20
  store i32 14, ptr %5, align 4, !tbaa !3
  br label %8

6:                                                ; preds = %2
  %7 = tail call noundef i32 @_ZN3zmq8timers_t7executeEv(ptr noundef nonnull align 8 dereferenceable(120) %0)
  br label %8

8:                                                ; preds = %6, %4
  %.0 = phi i32 [ %7, %6 ], [ -1, %4 ]
  ret i32 %.0
}